target datalayout = "e-m:e-p270:32:32-p271:32:32-p272:64:64-i64:64-i128:128-f80:128-n8:16:32:64-S128"
target triple = "x86_64-pc-linux-gnu"

%struct.rb_data_type_struct = type { ptr, %struct.anon, ptr, ptr, i64 }
%struct.anon = type { ptr, ptr, ptr, ptr, [1 x ptr] }

@ossl_x509store_type = internal constant %struct.rb_data_type_struct { ptr @.str.34, %struct.anon { ptr @ossl_x509store_mark, ptr @ossl_x509store_free, ptr null, ptr null, [1 x ptr] zeroinitializer }, ptr null, ptr null, i64 33 }, align 8
@rb_eRuntimeError = external global i64, align 8
@.str.2 = private unnamed_addr constant [26 x i8] c"STORE wasn't initialized!\00", align 1
@eX509StoreError = internal global i64 0, align 8
@.str.41 = private unnamed_addr constant [22 x i8] c"X509_STORE_add_lookup\00", align 1
@.str.42 = private unnamed_addr constant [20 x i8] c"X509_LOOKUP_add_dir\00", align 1

; Function Attrs: nounwind sspstrong uwtable
define internal i64 @ossl_x509store_add_path(i64 noundef %0, i64 noundef %1) #0 {
  %3 = alloca i64, align 8
  %4 = alloca i64, align 8
  %5 = alloca ptr, align 8
  %6 = alloca ptr, align 8
  %7 = alloca ptr, align 8
  store i64 %0, ptr %3, align 8, !tbaa !6
  store i64 %1, ptr %4, align 8, !tbaa !6
  call void @llvm.lifetime.start.p0(i64 8, ptr %5) #12
  call void @llvm.lifetime.start.p0(i64 8, ptr %6) #12
  call void @llvm.lifetime.start.p0(i64 8, ptr %7) #12
  br label %8

8:                                                ; preds = %2
  %9 = load i64, ptr %3, align 8, !tbaa !6
  %10 = call ptr @rb_check_typeddata(i64 noundef %9, ptr noundef @ossl_x509store_type)
  store ptr %10, ptr %5, align 8, !tbaa !25
  %11 = load ptr, ptr %5, align 8, !tbaa !25
  %12 = icmp ne ptr %11, null
  br i1 %12, label %15, label %13

13:                                               ; preds = %8
  %14 = load i64, ptr @rb_eRuntimeError, align 8, !tbaa !6
  call void (i64, ptr, ...) @ossl_raise(i64 noundef %14, ptr noundef @.str.2) #16
  unreachable

15:                                               ; preds = %8
  br label %16

16:                                               ; preds = %15
  br label %17

17:                                               ; preds = %16
  %18 = call ptr @rb_string_value_cstr(ptr noundef %4)
  store ptr %18, ptr %7, align 8, !tbaa !31
  %19 = load ptr, ptr %5, align 8, !tbaa !25
  %20 = call ptr @X509_LOOKUP_hash_dir()
  %21 = call ptr @X509_STORE_add_lookup(ptr noundef %19, ptr noundef %20)
  store ptr %21, ptr %6, align 8, !tbaa !33
  %22 = load ptr, ptr %6, align 8, !tbaa !33
  %23 = icmp ne ptr %22, null
  br i1 %23, label %26, label %24

24:                                               ; preds = %17
  %25 = load i64, ptr @eX509StoreError, align 8, !tbaa !6
  call void (i64, ptr, ...) @ossl_raise(i64 noundef %25, ptr noundef @.str.41) #16
  unreachable

26:                                               ; preds = %17
  %27 = load ptr, ptr %6, align 8, !tbaa !33
  %28 = load ptr, ptr %7, align 8, !tbaa !31
  %29 = call i32 @X509_LOOKUP_ctrl(ptr noundef %27, i32 noundef 2, ptr noundef %28, i64 noundef 1, ptr noundef null)
  %30 = icmp ne i32 %29, 1
  br i1 %30, label %31, label %33

31:                                               ; preds = %26
  %32 = load i64, ptr @eX509StoreError, align 8, !tbaa !6
  call void (i64, ptr, ...) @ossl_raise(i64 noundef %32, ptr noundef @.str.42) #16
  unreachable

33:                                               ; preds = %26
  %34 = load i64, ptr %3, align 8, !tbaa !6
  call void @llvm.lifetime.end.p0(i64 8, ptr %7) #12
  call void @llvm.lifetime.end.p0(i64 8, ptr %6) #12
  call void @llvm.lifetime.end.p0(i64 8, ptr %5) #12
  ret i64 %34
}