; Function Attrs: nounwind sspstrong uwtable
define internal noundef i64 @ossl_x509store_add_path(i64 noundef returned %0, i64 noundef %1) #0 {
  %3 = alloca i64, align 8
  store i64 %1, ptr %3, align 8, !tbaa !20
  %4 = tail call ptr @rb_check_typeddata(i64 noundef %0, ptr noundef nonnull @ossl_x509store_type) #5
  %.not = icmp eq ptr %4, null
  br i1 %.not, label %5, label %7

5:                                                ; preds = %2
  %6 = load i64, ptr @rb_eRuntimeError, align 8, !tbaa !20
  tail call void (i64, ptr, ...) @ossl_raise(i64 noundef %6, ptr noundef nonnull @.str.2) #7
  unreachable

7:                                                ; preds = %2
  %8 = call ptr @rb_string_value_cstr(ptr noundef nonnull %3) #5
  %9 = call ptr @X509_LOOKUP_hash_dir() #5
  %10 = call ptr @X509_STORE_add_lookup(ptr noundef nonnull %4, ptr noundef %9) #5
  %.not7 = icmp eq ptr %10, null
  br i1 %.not7, label %11, label %13

11:                                               ; preds = %7
  %12 = load i64, ptr @eX509StoreError, align 8, !tbaa !20
  call void (i64, ptr, ...) @ossl_raise(i64 noundef %12, ptr noundef nonnull @.str.41) #7
  unreachable

13:                                               ; preds = %7
  %14 = call i32 @X509_LOOKUP_ctrl(ptr noundef nonnull %10, i32 noundef 2, ptr noundef %8, i64 noundef 1, ptr noundef null) #5
  %.not8 = icmp eq i32 %14, 1
  br i1 %.not8, label %17, label %15

15:                                               ; preds = %13
  %16 = load i64, ptr @eX509StoreError, align 8, !tbaa !20
  call void (i64, ptr, ...) @ossl_raise(i64 noundef %16, ptr noundef nonnull @.str.42) #7
  unreachable

17:                                               ; preds = %13
  ret i64 %0
}